; Function Attrs: mustprogress uwtable
define dso_local void @_ZN7testing4Mock22UnregisterCallReactionEm(i64 noundef %0) local_unnamed_addr #3 align 2 personality ptr @__gxx_personality_v0 {
  %2 = alloca i64, align 8
  tail call void @_ZN7testing8internal9MutexBase4LockEv(ptr noundef nonnull align 8 dereferenceable(56) @_ZN7testing8internal13g_gmock_mutexE)
  %3 = load atomic i8, ptr @_ZGVZN7testing12_GLOBAL__N_128UninterestingCallReactionMapEvE3map acquire, align 8
  %4 = icmp eq i8 %3, 0
  br i1 %4, label %5, label %17, !prof !43

5:                                                ; preds = %1
  %6 = tail call i32 @__cxa_guard_acquire(ptr nonnull @_ZGVZN7testing12_GLOBAL__N_128UninterestingCallReactionMapEvE3map) #34
  %.not.i = icmp eq i32 %6, 0
  br i1 %.not.i, label %17, label %7

7:                                                ; preds = %5
  %8 = invoke noalias noundef nonnull dereferenceable(56) ptr @_Znwm(i64 noundef 56) #36
          to label %9 unwind label %15

9:                                                ; preds = %7
  %10 = getelementptr inbounds nuw i8, ptr %8, i64 48
  store ptr %10, ptr %8, align 8, !tbaa !320
  %11 = getelementptr inbounds nuw i8, ptr %8, i64 8
  store i64 1, ptr %11, align 8, !tbaa !327
  %12 = getelementptr inbounds nuw i8, ptr %8, i64 16
  %13 = getelementptr inbounds nuw i8, ptr %8, i64 32
  tail call void @llvm.memset.p0.i64(ptr noundef nonnull align 8 dereferenceable(16) %12, i8 0, i64 16, i1 false)
  store float 1.000000e+00, ptr %13, align 8, !tbaa !328
  %14 = getelementptr inbounds nuw i8, ptr %8, i64 40
  tail call void @llvm.memset.p0.i64(ptr noundef nonnull align 8 dereferenceable(16) %14, i8 0, i64 16, i1 false)
  store ptr %8, ptr @_ZZN7testing12_GLOBAL__N_128UninterestingCallReactionMapEvE3map, align 8, !tbaa !329
  tail call void @__cxa_guard_release(ptr nonnull @_ZGVZN7testing12_GLOBAL__N_128UninterestingCallReactionMapEvE3map) #34
  br label %17

15:                                               ; preds = %7
  %16 = landingpad { ptr, i32 }
          cleanup
  tail call void @__cxa_guard_abort(ptr nonnull @_ZGVZN7testing12_GLOBAL__N_128UninterestingCallReactionMapEvE3map) #34
  br label %.body

17:                                               ; preds = %9, %5, %1
  %18 = load ptr, ptr @_ZZN7testing12_GLOBAL__N_128UninterestingCallReactionMapEvE3map, align 8, !tbaa !329
  call void @llvm.lifetime.start.p0(i64 8, ptr nonnull %2) #34
  store i64 %0, ptr %2, align 8, !tbaa !86
  %19 = invoke noundef i64 @_ZNSt10_HashtableImSt4pairIKmN7testing8internal12CallReactionEESaIS5_ENSt8__detail10_Select1stESt8equal_toImESt4hashImENS7_18_Mod_range_hashingENS7_20_Default_ranged_hashENS7_20_Prime_rehash_policyENS7_17_Hashtable_traitsILb0ELb0ELb1EEEE8_M_eraseESt17integral_constantIbLb1EERS1_(ptr noundef nonnull align 8 dereferenceable(56) %18, ptr noundef nonnull align 8 dereferenceable(8) %2)
          to label %_ZNSt13unordered_mapImN7testing8internal12CallReactionESt4hashImESt8equal_toImESaISt4pairIKmS2_EEE5eraseERS8_.exit unwind label %23

_ZNSt13unordered_mapImN7testing8internal12CallReactionESt4hashImESt8equal_toImESaISt4pairIKmS2_EEE5eraseERS8_.exit: ; preds = %17
  call void @llvm.lifetime.end.p0(i64 8, ptr nonnull %2) #34
  invoke void @_ZN7testing8internal9MutexBase6UnlockEv(ptr noundef nonnull align 8 dereferenceable(56) @_ZN7testing8internal13g_gmock_mutexE)
          to label %_ZN7testing8internal14GTestMutexLockD2Ev.exit unwind label %20

20:                                               ; preds = %_ZNSt13unordered_mapImN7testing8internal12CallReactionESt4hashImESt8equal_toImESaISt4pairIKmS2_EEE5eraseERS8_.exit
  %21 = landingpad { ptr, i32 }
          catch ptr null
  %22 = extractvalue { ptr, i32 } %21, 0
  call void @__clang_call_terminate(ptr %22) #38
  unreachable

_ZN7testing8internal14GTestMutexLockD2Ev.exit:    ; preds = %_ZNSt13unordered_mapImN7testing8internal12CallReactionESt4hashImESt8equal_toImESaISt4pairIKmS2_EEE5eraseERS8_.exit
  ret void

23:                                               ; preds = %17
  %24 = landingpad { ptr, i32 }
          cleanup
  call void @llvm.lifetime.end.p0(i64 8, ptr nonnull %2) #34
  br label %.body

.body:                                            ; preds = %15, %23
  %.pn = phi { ptr, i32 } [ %24, %23 ], [ %16, %15 ]
  invoke void @_ZN7testing8internal9MutexBase6UnlockEv(ptr noundef nonnull align 8 dereferenceable(56) @_ZN7testing8internal13g_gmock_mutexE)
          to label %_ZN7testing8internal14GTestMutexLockD2Ev.exit4 unwind label %25

25:                                               ; preds = %.body
  %26 = landingpad { ptr, i32 }
          catch ptr null
  %27 = extractvalue { ptr, i32 } %26, 0
  call void @__clang_call_terminate(ptr %27) #38
  unreachable

_ZN7testing8internal14GTestMutexLockD2Ev.exit4:   ; preds = %.body
  resume { ptr, i32 } %.pn
}